target datalayout = "e-m:e-p270:32:32-p271:32:32-p272:64:64-i64:64-i128:128-f80:128-n8:16:32:64-S128"
target triple = "x86_64-pc-linux-gnu"

%struct.read_file_data = type { i32, i64, ptr, i32, i8, i32, %union.anon }
%union.anon = type { [1 x i32] }

@.str.7 = private unnamed_addr constant [20 x i8] c"Error reading stdin\00", align 1
@.str.8 = private unnamed_addr constant [19 x i8] c"Error reading '%s'\00", align 1
@.str.9 = private unnamed_addr constant [19 x i8] c"Error reading '%S'\00", align 1

; Function Attrs: nounwind uwtable
define internal i64 @file_read(ptr noundef %0, ptr noundef %1, ptr noundef %2) #0 {
  %4 = alloca ptr, align 8
  %5 = alloca ptr, align 8
  %6 = alloca ptr, align 8
  %7 = alloca ptr, align 8
  %8 = alloca i64, align 8
  store ptr %0, ptr %4, align 8
  store ptr %1, ptr %5, align 8
  store ptr %2, ptr %6, align 8
  %9 = load ptr, ptr %5, align 8
  store ptr %9, ptr %7, align 8
  %10 = load ptr, ptr %7, align 8
  %11 = getelementptr inbounds %struct.read_file_data, ptr %10, i32 0, i32 2
  %12 = load ptr, ptr %11, align 8
  %13 = load ptr, ptr %6, align 8
  store ptr %12, ptr %13, align 8
  br label %14

14:                                               ; preds = %31, %3
  %15 = load ptr, ptr %7, align 8
  %16 = getelementptr inbounds %struct.read_file_data, ptr %15, i32 0, i32 0
  %17 = load i32, ptr %16, align 8
  %18 = load ptr, ptr %7, align 8
  %19 = getelementptr inbounds %struct.read_file_data, ptr %18, i32 0, i32 2
  %20 = load ptr, ptr %19, align 8
  %21 = load ptr, ptr %7, align 8
  %22 = getelementptr inbounds %struct.read_file_data, ptr %21, i32 0, i32 1
  %23 = load i64, ptr %22, align 8
  %24 = call i64 @read(i32 noundef %17, ptr noundef %20, i64 noundef %23)
  store i64 %24, ptr %8, align 8
  %25 = load i64, ptr %8, align 8
  %26 = icmp slt i64 %25, 0
  br i1 %26, label %27, label %63

27:                                               ; preds = %14
  %28 = call ptr @__errno_location() #10
  %29 = load i32, ptr %28, align 4
  %30 = icmp eq i32 %29, 4
  br i1 %30, label %31, label %32

31:                                               ; preds = %27
  br label %14

32:                                               ; preds = %27
  %33 = load ptr, ptr %7, align 8
  %34 = getelementptr inbounds %struct.read_file_data, ptr %33, i32 0, i32 5
  %35 = load i32, ptr %34, align 8
  %36 = icmp eq i32 %35, 0
  br i1 %36, label %37, label %41

37:                                               ; preds = %32
  %38 = load ptr, ptr %4, align 8
  %39 = call ptr @__errno_location() #10
  %40 = load i32, ptr %39, align 4
  call void (ptr, i32, ptr, ...) @archive_set_error(ptr noundef %38, i32 noundef %40, ptr noundef @.str.7)
  br label %61

41:                                               ; preds = %32
  %42 = load ptr, ptr %7, align 8
  %43 = getelementptr inbounds %struct.read_file_data, ptr %42, i32 0, i32 5
  %44 = load i32, ptr %43, align 8
  %45 = icmp eq i32 %44, 1
  br i1 %45, label %46, label %53

46:                                               ; preds = %41
  %47 = load ptr, ptr %4, align 8
  %48 = call ptr @__errno_location() #10
  %49 = load i32, ptr %48, align 4
  %50 = load ptr, ptr %7, align 8
  %51 = getelementptr inbounds %struct.read_file_data, ptr %50, i32 0, i32 6
  %52 = getelementptr inbounds [1 x i8], ptr %51, i64 0, i64 0
  call void (ptr, i32, ptr, ...) @archive_set_error(ptr noundef %47, i32 noundef %49, ptr noundef @.str.8, ptr noundef %52)
  br label %60

53:                                               ; preds = %41
  %54 = load ptr, ptr %4, align 8
  %55 = call ptr @__errno_location() #10
  %56 = load i32, ptr %55, align 4
  %57 = load ptr, ptr %7, align 8
  %58 = getelementptr inbounds %struct.read_file_data, ptr %57, i32 0, i32 6
  %59 = getelementptr inbounds [1 x i32], ptr %58, i64 0, i64 0
  call void (ptr, i32, ptr, ...) @archive_set_error(ptr noundef %54, i32 noundef %56, ptr noundef @.str.9, ptr noundef %59)
  br label %60

60:                                               ; preds = %53, %46
  br label %61

61:                                               ; preds = %60, %37
  br label %62

62:                                               ; preds = %61
  br label %63

63:                                               ; preds = %62, %14
  %64 = load i64, ptr %8, align 8
  ret i64 %64
}