; Function Attrs: nounwind uwtable
define internal noundef i64 @file_read(ptr noundef %0, ptr noundef %1, ptr noundef writeonly captures(none) initializes((0, 8)) %2) #0 {
  %4 = getelementptr inbounds nuw i8, ptr %1, i64 16
  %5 = load ptr, ptr %4, align 8
  store ptr %5, ptr %2, align 8
  %6 = getelementptr inbounds nuw i8, ptr %1, i64 8
  br label %7

7:                                                ; preds = %13, %3
  %8 = load i32, ptr %1, align 8
  %9 = load ptr, ptr %4, align 8
  %10 = load i64, ptr %6, align 8
  %11 = tail call i64 @read(i32 noundef %8, ptr noundef %9, i64 noundef %10) #14
  %12 = icmp slt i64 %11, 0
  br i1 %12, label %13, label %.loopexit

13:                                               ; preds = %7
  %14 = tail call ptr @__errno_location() #17
  %15 = load i32, ptr %14, align 4
  %16 = icmp eq i32 %15, 4
  br i1 %16, label %7, label %17

17:                                               ; preds = %13
  %18 = getelementptr inbounds nuw i8, ptr %1, i64 32
  %19 = load i32, ptr %18, align 8
  switch i32 %19, label %23 [
    i32 0, label %20
    i32 1, label %21
  ]

20:                                               ; preds = %17
  tail call void (ptr, i32, ptr, ...) @archive_set_error(ptr noundef %0, i32 noundef %15, ptr noundef nonnull @.str.7) #14
  br label %.loopexit

21:                                               ; preds = %17
  %22 = getelementptr inbounds nuw i8, ptr %1, i64 36
  tail call void (ptr, i32, ptr, ...) @archive_set_error(ptr noundef %0, i32 noundef %15, ptr noundef nonnull @.str.8, ptr noundef nonnull %22) #14
  br label %.loopexit

23:                                               ; preds = %17
  %24 = getelementptr inbounds nuw i8, ptr %1, i64 36
  tail call void (ptr, i32, ptr, ...) @archive_set_error(ptr noundef %0, i32 noundef %15, ptr noundef nonnull @.str.9, ptr noundef nonnull %24) #14
  br label %.loopexit

.loopexit:                                        ; preds = %7, %21, %23, %20
  ret i64 %11
}